target datalayout = "e-m:e-p270:32:32-p271:32:32-p272:64:64-i64:64-i128:128-f80:128-n8:16:32:64-S128"
target triple = "x86_64-pc-linux-gnu"

%struct.cli_dbio = type { ptr, ptr, i32, i32, ptr, ptr, ptr, i32, i32, i32, i32, ptr }

@.str.106 = private unnamed_addr constant [26 x i8] c"in cli_tgzload_cleanup()\0A\00", align 1

; Function Attrs: nounwind uwtable
define internal void @cli_tgzload_cleanup(i32 noundef %0, ptr noundef %1, i32 noundef %2) #0 {
  %4 = alloca i32, align 4
  %5 = alloca ptr, align 8
  %6 = alloca i32, align 4
  store i32 %0, ptr %4, align 4, !tbaa !22
  store ptr %1, ptr %5, align 8, !tbaa !63
  store i32 %2, ptr %6, align 4, !tbaa !22
  call void (ptr, ...) @cli_dbgmsg(ptr noundef @.str.106)
  %7 = load i32, ptr %4, align 4, !tbaa !22
  %8 = icmp ne i32 %7, 0
  br i1 %8, label %9, label %16

9:                                                ; preds = %3
  %10 = load ptr, ptr %5, align 8, !tbaa !63
  %11 = getelementptr inbounds nuw %struct.cli_dbio, ptr %10, i32 0, i32 0
  %12 = load ptr, ptr %11, align 8, !tbaa !65
  %13 = call i32 @gzclose(ptr noundef %12)
  %14 = load ptr, ptr %5, align 8, !tbaa !63
  %15 = getelementptr inbounds nuw %struct.cli_dbio, ptr %14, i32 0, i32 0
  store ptr null, ptr %15, align 8, !tbaa !65
  br label %23

16:                                               ; preds = %3
  %17 = load ptr, ptr %5, align 8, !tbaa !63
  %18 = getelementptr inbounds nuw %struct.cli_dbio, ptr %17, i32 0, i32 1
  %19 = load ptr, ptr %18, align 8, !tbaa !66
  %20 = call i32 @fclose(ptr noundef %19)
  %21 = load ptr, ptr %5, align 8, !tbaa !63
  %22 = getelementptr inbounds nuw %struct.cli_dbio, ptr %21, i32 0, i32 1
  store ptr null, ptr %22, align 8, !tbaa !66
  br label %23

23:                                               ; preds = %16, %9
  %24 = load ptr, ptr %5, align 8, !tbaa !63
  %25 = getelementptr inbounds nuw %struct.cli_dbio, ptr %24, i32 0, i32 4
  %26 = load ptr, ptr %25, align 8, !tbaa !68
  %27 = icmp ne ptr %26, null
  br i1 %27, label %28, label %34

28:                                               ; preds = %23
  %29 = load ptr, ptr %5, align 8, !tbaa !63
  %30 = getelementptr inbounds nuw %struct.cli_dbio, ptr %29, i32 0, i32 4
  %31 = load ptr, ptr %30, align 8, !tbaa !68
  call void @free(ptr noundef %31) #11
  %32 = load ptr, ptr %5, align 8, !tbaa !63
  %33 = getelementptr inbounds nuw %struct.cli_dbio, ptr %32, i32 0, i32 4
  store ptr null, ptr %33, align 8, !tbaa !68
  br label %34

34:                                               ; preds = %28, %23
  %35 = load ptr, ptr %5, align 8, !tbaa !63
  %36 = getelementptr inbounds nuw %struct.cli_dbio, ptr %35, i32 0, i32 11
  %37 = load ptr, ptr %36, align 8, !tbaa !51
  %38 = icmp ne ptr %37, null
  br i1 %38, label %39, label %45

39:                                               ; preds = %34
  %40 = load ptr, ptr %5, align 8, !tbaa !63
  %41 = getelementptr inbounds nuw %struct.cli_dbio, ptr %40, i32 0, i32 11
  %42 = load ptr, ptr %41, align 8, !tbaa !51
  call void @cl_hash_destroy(ptr noundef %42)
  %43 = load ptr, ptr %5, align 8, !tbaa !63
  %44 = getelementptr inbounds nuw %struct.cli_dbio, ptr %43, i32 0, i32 11
  store ptr null, ptr %44, align 8, !tbaa !51
  br label %45

45:                                               ; preds = %39, %34
  ret void
}