; Function Attrs: nounwind uwtable
define internal fastcc void @cli_tgzload_cleanup(i32 noundef range(i32 0, 2) %0, ptr noundef nonnull captures(none) %1) unnamed_addr #0 {
  tail call void (ptr, ...) @cli_dbgmsg(ptr noundef nonnull @.str.106) #19
  %.not = icmp eq i32 %0, 0
  br i1 %.not, label %6, label %3

3:                                                ; preds = %2
  %4 = load ptr, ptr %1, align 8, !tbaa !55
  %5 = tail call i32 @gzclose(ptr noundef %4) #19
  store ptr null, ptr %1, align 8, !tbaa !55
  br label %10

6:                                                ; preds = %2
  %7 = getelementptr inbounds nuw i8, ptr %1, i64 8
  %8 = load ptr, ptr %7, align 8, !tbaa !56
  %9 = tail call i32 @fclose(ptr noundef %8)
  store ptr null, ptr %7, align 8, !tbaa !56
  br label %10

10:                                               ; preds = %6, %3
  %11 = getelementptr inbounds nuw i8, ptr %1, i64 24
  %12 = load ptr, ptr %11, align 8, !tbaa !58
  %.not11 = icmp eq ptr %12, null
  br i1 %.not11, label %14, label %13

13:                                               ; preds = %10
  tail call void @free(ptr noundef nonnull %12) #19
  store ptr null, ptr %11, align 8, !tbaa !58
  br label %14

14:                                               ; preds = %13, %10
  %15 = getelementptr inbounds nuw i8, ptr %1, i64 64
  %16 = load ptr, ptr %15, align 8, !tbaa !40
  %.not12 = icmp eq ptr %16, null
  br i1 %.not12, label %18, label %17

17:                                               ; preds = %14
  tail call void @cl_hash_destroy(ptr noundef nonnull %16) #19
  store ptr null, ptr %15, align 8, !tbaa !40
  br label %18

18:                                               ; preds = %17, %14
  ret void
}